target datalayout = "e-m:e-p270:32:32-p271:32:32-p272:64:64-i64:64-i128:128-f80:128-n8:16:32:64-S128"
target triple = "x86_64-unknown-linux-gnu"

%struct.FsCred = type { i32, i32, i32, i64 }

; Function Attrs: nounwind sspstrong uwtable
define dso_local void @cred_init(ptr noundef %credp) #0 {
entry:
  %credp.addr = alloca ptr, align 8
  store ptr %credp, ptr %credp.addr, align 8
  %0 = load ptr, ptr %credp.addr, align 8
  %fc_uid = getelementptr inbounds %struct.FsCred, ptr %0, i32 0, i32 0
  store i32 -1, ptr %fc_uid, align 8
  %1 = load ptr, ptr %credp.addr, align 8
  %fc_gid = getelementptr inbounds %struct.FsCred, ptr %1, i32 0, i32 1
  store i32 -1, ptr %fc_gid, align 4
  %2 = load ptr, ptr %credp.addr, align 8
  %fc_mode = getelementptr inbounds %struct.FsCred, ptr %2, i32 0, i32 2
  store i32 -1, ptr %fc_mode, align 8
  %3 = load ptr, ptr %credp.addr, align 8
  %fc_rdev = getelementptr inbounds %struct.FsCred, ptr %3, i32 0, i32 3
  store i64 -1, ptr %fc_rdev, align 8
  ret void
}