; Function Attrs: mustprogress nofree norecurse nosync nounwind sspstrong willreturn memory(argmem: write) uwtable
define dso_local void @cred_init(ptr noundef writeonly captures(none) initializes((0, 12), (16, 24)) %credp) local_unnamed_addr #3 {
entry:
  store i32 -1, ptr %credp, align 8
  %fc_gid = getelementptr inbounds nuw i8, ptr %credp, i64 4
  store i32 -1, ptr %fc_gid, align 4
  %fc_mode = getelementptr inbounds nuw i8, ptr %credp, i64 8
  store i32 -1, ptr %fc_mode, align 8
  %fc_rdev = getelementptr inbounds nuw i8, ptr %credp, i64 16
  store i64 -1, ptr %fc_rdev, align 8
  ret void
}